; Function Attrs: mustprogress null_pointer_is_valid sspstrong uwtable
define void @_ZN19WiresharkMainWindow16editResolvedNameEv(ptr noundef align 8 dereferenceable_or_null(560) %0) local_unnamed_addr #0 align 2 {
  %2 = alloca %class.QModelIndex, align 8
  %3 = alloca %class.QModelIndex, align 8
  %4 = getelementptr inbounds nuw i8, ptr %0, i64 272
  %5 = load ptr, ptr %4, align 8
  %6 = tail call noundef zeroext i1 @_ZN10PacketList17contextMenuActiveEv(ptr noundef align 8 dereferenceable_or_null(432) %5)
  br i1 %6, label %10, label %7

7:                                                ; preds = %1
  %8 = load ptr, ptr %4, align 8
  %9 = tail call noundef zeroext i1 @_ZNK7QWidget8hasFocusEv(ptr noundef align 8 dereferenceable_or_null(40) %8)
  br i1 %9, label %10, label %23

10:                                               ; preds = %7, %1
  call void @llvm.lifetime.start.p0(i64 24, ptr nonnull %2) #25
  %11 = load ptr, ptr %4, align 8
  call void @_ZNK17QAbstractItemView12currentIndexEv(ptr dead_on_unwind nonnull writable sret(%class.QModelIndex) align 8 %2, ptr noundef align 8 dereferenceable_or_null(40) %11)
  %12 = load i32, ptr %2, align 8
  %13 = icmp sgt i32 %12, -1
  %14 = getelementptr inbounds nuw i8, ptr %2, i64 4
  %15 = load i32, ptr %14, align 4
  %16 = icmp sgt i32 %15, -1
  %or.cond = select i1 %13, i1 %16, i1 false
  br i1 %or.cond, label %_ZNK11QModelIndex7isValidEv.exit, label %_ZNK11QModelIndex7isValidEv.exit.thread

_ZNK11QModelIndex7isValidEv.exit.thread:          ; preds = %10
  call void @llvm.lifetime.end.p0(i64 24, ptr nonnull %2) #25
  br label %23

_ZNK11QModelIndex7isValidEv.exit:                 ; preds = %10
  %17 = getelementptr inbounds nuw i8, ptr %2, i64 16
  %18 = load ptr, ptr %17, align 8
  %.not = icmp eq ptr %18, null
  call void @llvm.lifetime.end.p0(i64 24, ptr nonnull %2) #25
  br i1 %.not, label %23, label %19

19:                                               ; preds = %_ZNK11QModelIndex7isValidEv.exit
  call void @llvm.lifetime.start.p0(i64 24, ptr nonnull %3) #25
  %20 = load ptr, ptr %4, align 8
  call void @_ZNK17QAbstractItemView12currentIndexEv(ptr dead_on_unwind nonnull writable sret(%class.QModelIndex) align 8 %3, ptr noundef align 8 dereferenceable_or_null(40) %20)
  %21 = getelementptr inbounds nuw i8, ptr %3, i64 4
  %22 = load i32, ptr %21, align 4
  call void @llvm.lifetime.end.p0(i64 24, ptr nonnull %3) #25
  br label %23

23:                                               ; preds = %_ZNK11QModelIndex7isValidEv.exit.thread, %_ZNK11QModelIndex7isValidEv.exit, %19, %7
  %.0 = phi i32 [ %22, %19 ], [ -1, %_ZNK11QModelIndex7isValidEv.exit ], [ -1, %7 ], [ -1, %_ZNK11QModelIndex7isValidEv.exit.thread ]
  %24 = getelementptr inbounds nuw i8, ptr %0, i64 360
  %25 = load ptr, ptr %24, align 8
  %26 = getelementptr inbounds nuw i8, ptr %25, i64 2112
  %27 = load ptr, ptr %26, align 8
  %28 = getelementptr inbounds nuw i8, ptr %0, i64 40
  call void @_ZN18AddressEditorFrame13editAddressesER11CaptureFilei(ptr noundef align 8 dereferenceable_or_null(72) %27, ptr noundef nonnull align 8 dereferenceable(48) %28, i32 noundef %.0)
  %29 = load ptr, ptr %24, align 8
  %30 = getelementptr inbounds nuw i8, ptr %29, i64 2112
  %31 = load ptr, ptr %30, align 8
  call void @_ZN19WiresharkMainWindow18showAccordionFrameEP14AccordionFrameb(ptr noundef align 8 dereferenceable_or_null(560) %0, ptr noundef %31, i1 noundef zeroext false)
  ret void
}